
my_soc_firmware.elf:     file format elf32-littleriscv


Disassembly of section .text:

00010000 <_start>:
.global _start          /* Hàm _start toàn cục để Linker nhìn thấy */

_start:
    /* 1. Initiate Reg and enable FPU*/
    /* Tắt toàn bộ ngắt toàn cục (Tránh ngắt rác lúc đang boot) */
    csrw mstatus, zero  
   10000:	30001073          	csrw	mstatus,zero
    csrw mie, zero      
   10004:	30401073          	csrw	mie,zero
    /* Enable Floating Point Unit
       Bit 13, 14 của mstatus là trường FS (Floating Point status). FS = 01 (Initial) hoặc 11 (Dirty) 
       0x00006000 tương đương với dịch bit 11 vào vị trí 13, 14 */
    #if CONFIG_HAS_FPU
    
    li t0, 0x00006000   # 0x6000 = 0110 0000 0000 0000
   10008:	000062b7          	lui	t0,0x6
    csrs mstatus, t0    #csrw = control and status register set (Set cac bit trong mstatus theo t0)
   1000c:	3002a073          	csrs	mstatus,t0
    #endif
    
    /* Khởi tạo thanh ghi Floating point Control (fcsr) về 0 (Mặc định la Round to Nearest) */
    csrw fcsr, zero       
   10010:	00301073          	fscsr	zero
    /* ----------------------------------------------------------------
     * 2. Thiet lap moi truong C (C ENVIRONMENT)
     * ---------------------------------------------------------------- */
    /* Nạp Stack Pointer (sp) từ biến _estack trong linker.ld 
       sp sẽ trỏ vào đỉnh của On chip SRAM (0x80010000) */
    la sp, _estack
   10014:	80000117          	auipc	sp,0x80000
   10018:	fec10113          	addi	sp,sp,-20 # 80010000 <_estack>

    /* ----------------------------------------------------------------
     * 3. DDon dep RAM (COPY .DATA VÀ XÓA .BSS)
     * ---------------------------------------------------------------- */
    /* Bước 3.1: Copy vùng .data từ Flash sang RAM */
    la a0, _sdata       /* a0 = Bắt đầu vùng .data trên RAM */
   1001c:	7fff0517          	auipc	a0,0x7fff0
   10020:	fe450513          	addi	a0,a0,-28 # 80000000 <dst_arr>
    la a1, _edata       /* a1 = Kết thúc vùng .data trên RAM */
   10024:	7fff0597          	auipc	a1,0x7fff0
   10028:	fe458593          	addi	a1,a1,-28 # 80000008 <huart0>
    la a2, _sidata     /* a2 = Bắt đầu vùng dữ liệu nguồn trên Flash */
   1002c:	00001617          	auipc	a2,0x1
   10030:	a6460613          	addi	a2,a2,-1436 # 10a90 <_etext>

00010034 <copy_data_loop>:
    
copy_data_loop:
    bge a0, a1, copy_data_done  /* Nếu a0 >= a1 thì thoát vòng lặp */
   10034:	00b55c63          	bge	a0,a1,1004c <copy_data_done>
    lw t0, 0(a2)                /* Đọc 1 word (4 byte) từ Flash */
   10038:	00062283          	lw	t0,0(a2)
    sw t0, 0(a0)                /* Ghi 1 word đó xuống RAM */
   1003c:	00552023          	sw	t0,0(a0)
    addi a0, a0, 4              /* Tăng con trỏ RAM thêm 4 byte */
   10040:	00450513          	addi	a0,a0,4
    addi a2, a2, 4              /* Tăng con trỏ Flash thêm 4 byte */
   10044:	00460613          	addi	a2,a2,4
    j copy_data_loop            /* Lặp lại */
   10048:	fedff06f          	j	10034 <copy_data_loop>

0001004c <copy_data_done>:

copy_data_done:
    /* Bước 3.2: Xóa vùng .bss (Biến toàn cục bằng 0) trên RAM */
    la a0, _sbss        /* a0 = Bắt đầu vùng .bss */
   1004c:	7fff0517          	auipc	a0,0x7fff0
   10050:	fbc50513          	addi	a0,a0,-68 # 80000008 <huart0>
    la a1, _ebss        /* a1 = Kết thúc vùng .bss */
   10054:	7fff0597          	auipc	a1,0x7fff0
   10058:	fc058593          	addi	a1,a1,-64 # 80000014 <_ebss>

0001005c <clear_bss_loop>:
    
clear_bss_loop:
    bge a0, a1, clear_bss_done  /* Nếu a0 >= a1 thì thoát vòng lặp */
   1005c:	00b55863          	bge	a0,a1,1006c <clear_bss_done>
    sw zero, 0(a0)              /* Ghi 32 bit số 0 xuống RAM */
   10060:	00052023          	sw	zero,0(a0)
    addi a0, a0, 4              /* Tăng con trỏ RAM thêm 4 byte */
   10064:	00450513          	addi	a0,a0,4
    j clear_bss_loop            /* Lặp lại */
   10068:	ff5ff06f          	j	1005c <clear_bss_loop>

0001006c <clear_bss_done>:
    /* ----------------------------------------------------------------
     * 4. Giao lai quyen dieu khien cho phan mem C Code
     * ---------------------------------------------------------------- */
    /* Trỏ thanh ghi ngắt mtvec về 0 tạm thời (Sẽ được C code cấu hình sau) */
    #csrw mtvec, zero #Machine Trap Vector Base Address Register (noi Cpu nhay toi khi interupt, exception)
    la t0, trap_entry 
   1006c:	00001297          	auipc	t0,0x1
   10070:	85428293          	addi	t0,t0,-1964 # 108c0 <trap_entry>
    csrw mtvec, t0
   10074:	30529073          	csrw	mtvec,t0
    /* Nhảy vào hàm main() */
    call main
   10078:	0e9000ef          	jal	10960 <main>

0001007c <hang>:
     * 5. Safy net (Vong lap chet)
     * ---------------------------------------------------------------- */
    /* Nếu hàm main() bị return, CPU sẽ rớt xuống đây và kẹt lại, 
       tránh chay sang vùng nhớ rác gây undefined behavior */
hang:
   1007c:	0000006f          	j	1007c <hang>

00010080 <clint_init>:
#include "clint.h"

void clint_init(void) {
    CLINT_MTIMECMP_HI = 0xFFFFFFFF;
   10080:	020047b7          	lui	a5,0x2004
   10084:	fff00713          	li	a4,-1
   10088:	00e7a223          	sw	a4,4(a5) # 2004004 <_etext+0x1ff3574>
   1008c:	020047b7          	lui	a5,0x2004
    CLINT_MTIMECMP_LO = 0xFFFFFFFF;
   10090:	00e7a023          	sw	a4,0(a5) # 2004000 <_etext+0x1ff3570>
    CLINT_MSIP = 0;
   10094:	020007b7          	lui	a5,0x2000
   10098:	0007a023          	sw	zero,0(a5) # 2000000 <_etext+0x1fef570>
}
   1009c:	00008067          	ret

000100a0 <clint_get_mtime>:

uint64_t clint_get_mtime(void) {
    uint32_t mtime_hi, mtime_lo;
    do {
        mtime_hi = CLINT_MTIME_HI;
   100a0:	0200c7b7          	lui	a5,0x200c
        mtime_lo = CLINT_MTIME_LO;
   100a4:	00078693          	mv	a3,a5
   100a8:	ff868693          	addi	a3,a3,-8
        mtime_hi = CLINT_MTIME_HI;
   100ac:	ffc78793          	addi	a5,a5,-4 # 200bffc <_etext+0x1ffb56c>
   100b0:	0007a703          	lw	a4,0(a5)
        mtime_lo = CLINT_MTIME_LO;
   100b4:	0006a503          	lw	a0,0(a3)
    } while (mtime_hi != CLINT_MTIME_HI); 
   100b8:	0007a583          	lw	a1,0(a5)
   100bc:	fee59ae3          	bne	a1,a4,100b0 <clint_get_mtime+0x10>
    
    return (((uint64_t)mtime_hi) << 32) | mtime_lo;
}
   100c0:	00008067          	ret

000100c4 <clint_set_timer_ms>:
        mtime_hi = CLINT_MTIME_HI;
   100c4:	0200c7b7          	lui	a5,0x200c
        mtime_lo = CLINT_MTIME_LO;
   100c8:	00078813          	mv	a6,a5
   100cc:	ff880813          	addi	a6,a6,-8
        mtime_hi = CLINT_MTIME_HI;
   100d0:	ffc78793          	addi	a5,a5,-4 # 200bffc <_etext+0x1ffb56c>
   100d4:	0007a703          	lw	a4,0(a5)
        mtime_lo = CLINT_MTIME_LO;
   100d8:	00082603          	lw	a2,0(a6)
    } while (mtime_hi != CLINT_MTIME_HI); 
   100dc:	0007a683          	lw	a3,0(a5)
   100e0:	fed71ae3          	bne	a4,a3,100d4 <clint_set_timer_ms+0x10>

void clint_set_timer_ms(uint32_t ms, uint32_t timer_freq_hz) {
    uint64_t current_time = clint_get_mtime();
    
    uint32_t ticks_per_ms = timer_freq_hz / 1000;
   100e4:	106257b7          	lui	a5,0x10625
   100e8:	dd378793          	addi	a5,a5,-557 # 10624dd3 <_etext+0x10614343>
   100ec:	02f5b7b3          	mulhu	a5,a1,a5
    uint64_t target = current_time + ((uint64_t)ms * ticks_per_ms);

    CLINT_MTIMECMP_HI = 0xFFFFFFFF; 
   100f0:	fff00693          	li	a3,-1
   100f4:	020045b7          	lui	a1,0x2004
   100f8:	00d5a223          	sw	a3,4(a1) # 2004004 <_etext+0x1ff3574>
    uint32_t ticks_per_ms = timer_freq_hz / 1000;
   100fc:	0067d793          	srli	a5,a5,0x6
    uint64_t target = current_time + ((uint64_t)ms * ticks_per_ms);
   10100:	02a786b3          	mul	a3,a5,a0
   10104:	02a7b7b3          	mulhu	a5,a5,a0
   10108:	00c68633          	add	a2,a3,a2
   1010c:	00d636b3          	sltu	a3,a2,a3
    CLINT_MTIMECMP_LO = (uint32_t)(target & 0xFFFFFFFF);
   10110:	00c5a023          	sw	a2,0(a1)
    uint64_t target = current_time + ((uint64_t)ms * ticks_per_ms);
   10114:	00e787b3          	add	a5,a5,a4
   10118:	00f686b3          	add	a3,a3,a5
    CLINT_MTIMECMP_HI = (uint32_t)(target >> 32);
   1011c:	00d5a223          	sw	a3,4(a1)
}
   10120:	00008067          	ret

00010124 <clint_trigger_soft_irq>:

void clint_trigger_soft_irq(void) {
    CLINT_MSIP = 1;
   10124:	020007b7          	lui	a5,0x2000
   10128:	00100713          	li	a4,1
   1012c:	00e7a023          	sw	a4,0(a5) # 2000000 <_etext+0x1fef570>
}
   10130:	00008067          	ret

00010134 <clint_clear_soft_irq>:

void clint_clear_soft_irq(void) {
    CLINT_MSIP = 0;
   10134:	020007b7          	lui	a5,0x2000
   10138:	0007a023          	sw	zero,0(a5) # 2000000 <_etext+0x1fef570>
}
   1013c:	00008067          	ret

00010140 <HAL_Delay>:
        mtime_hi = CLINT_MTIME_HI;
   10140:	0200c7b7          	lui	a5,0x200c
        mtime_lo = CLINT_MTIME_LO;
   10144:	00078693          	mv	a3,a5
   10148:	ff868693          	addi	a3,a3,-8
        mtime_hi = CLINT_MTIME_HI;
   1014c:	ffc78793          	addi	a5,a5,-4 # 200bffc <_etext+0x1ffb56c>
   10150:	0007a803          	lw	a6,0(a5)
        mtime_lo = CLINT_MTIME_LO;
   10154:	0006a883          	lw	a7,0(a3)
    } while (mtime_hi != CLINT_MTIME_HI); 
   10158:	0007a703          	lw	a4,0(a5)
   1015c:	fee81ae3          	bne	a6,a4,10150 <HAL_Delay+0x10>

void HAL_Delay(uint32_t ms, uint32_t timer_freq_hz) {
    uint64_t start_time = clint_get_mtime();
    
    uint32_t ticks_per_ms = timer_freq_hz / 1000;
   10160:	106257b7          	lui	a5,0x10625
   10164:	dd378793          	addi	a5,a5,-557 # 10624dd3 <_etext+0x10614343>
   10168:	02f5b7b3          	mulhu	a5,a1,a5
        mtime_hi = CLINT_MTIME_HI;
   1016c:	0200c737          	lui	a4,0x200c
        mtime_lo = CLINT_MTIME_LO;
   10170:	00070593          	mv	a1,a4
   10174:	ff858593          	addi	a1,a1,-8
        mtime_hi = CLINT_MTIME_HI;
   10178:	ffc70713          	addi	a4,a4,-4 # 200bffc <_etext+0x1ffb56c>
    uint32_t ticks_per_ms = timer_freq_hz / 1000;
   1017c:	0067d793          	srli	a5,a5,0x6
    uint64_t ticks_to_wait = (uint64_t)ms * ticks_per_ms;
   10180:	02a78333          	mul	t1,a5,a0
   10184:	02a7b533          	mulhu	a0,a5,a0
        mtime_hi = CLINT_MTIME_HI;
   10188:	00072783          	lw	a5,0(a4)
        mtime_lo = CLINT_MTIME_LO;
   1018c:	0005a603          	lw	a2,0(a1)
    } while (mtime_hi != CLINT_MTIME_HI); 
   10190:	00072683          	lw	a3,0(a4)
   10194:	fed79ae3          	bne	a5,a3,10188 <HAL_Delay+0x48>
    
    while ((clint_get_mtime() - start_time) < ticks_to_wait) {
   10198:	411606b3          	sub	a3,a2,a7
   1019c:	410787b3          	sub	a5,a5,a6
   101a0:	00d63633          	sltu	a2,a2,a3
   101a4:	40c787b3          	sub	a5,a5,a2
   101a8:	00a7f663          	bgeu	a5,a0,101b4 <HAL_Delay+0x74>
        __asm__ volatile ("nop"); 
   101ac:	00000013          	nop
    while ((clint_get_mtime() - start_time) < ticks_to_wait) {
   101b0:	fd9ff06f          	j	10188 <HAL_Delay+0x48>
   101b4:	00f51463          	bne	a0,a5,101bc <HAL_Delay+0x7c>
   101b8:	fe66eae3          	bltu	a3,t1,101ac <HAL_Delay+0x6c>
    }
   101bc:	00008067          	ret

000101c0 <HAL_DMA_Init>:
#include "dma.h"

// Reset toàn bộ DMA về trạng thái ban đầu
void HAL_DMA_Init(void) {
    // Ghi bit reset để clear toàn bộ logic bên trong
    DMA_GLOBAL_CTRL = 1;
   101c0:	400097b7          	lui	a5,0x40009
   101c4:	00100713          	li	a4,1
   101c8:	f0e7a023          	sw	a4,-256(a5) # 40008f00 <_etext+0x3fff8470>
}
   101cc:	00008067          	ret

000101d0 <HAL_DMA_Config>:
// Cấu hình cho 1 channel DMA trước khi chạy
void HAL_DMA_Config(DMA_Channel_TypeDef *dma_ch, uint32_t src, uint32_t dst, uint16_t len, 
                    uint8_t src_inc, uint8_t dst_inc, uint8_t burst_size, uint8_t periph_num) {
    
    // Nếu chưa cấp phát channel thì thôi
    if (dma_ch == NULL) return;
   101d0:	04050263          	beqz	a0,10214 <HAL_DMA_Config+0x44>

    // Set địa chỉ nguồn và đích
    dma_ch->SRC_ADDR = src;
   101d4:	00b52023          	sw	a1,0(a0)
    dma_ch->DST_ADDR = dst;
   101d8:	00c52223          	sw	a2,4(a0)
    
    // Set độ dài cần copy
    dma_ch->LEN = len;
   101dc:	00d52423          	sw	a3,8(a0)

    // Build giá trị thanh ghi control
    uint32_t ctrl_val = 0;
    
    // Giới hạn burst để tránh vượt quá phần cứng hỗ trợ
    if (burst_size > 64) burst_size = 64;
   101e0:	04000613          	li	a2,64
   101e4:	0ff87693          	zext.b	a3,a6
   101e8:	03066863          	bltu	a2,a6,10218 <HAL_DMA_Config+0x48>
    ctrl_val |= (burst_size << DMA_CTRL_BURST_Pos);
   101ec:	00169693          	slli	a3,a3,0x1
    
    // Bật auto increment nếu cần
    if (src_inc) ctrl_val |= DMA_CTRL_SRC_INCR_Msk;
   101f0:	00070463          	beqz	a4,101f8 <HAL_DMA_Config+0x28>
   101f4:	1006e693          	ori	a3,a3,256
    if (dst_inc) ctrl_val |= DMA_CTRL_DST_INCR_Msk;
   101f8:	00078463          	beqz	a5,10200 <HAL_DMA_Config+0x30>
   101fc:	2006e693          	ori	a3,a3,512
    
    // Chọn peripheral nếu có dùng
    ctrl_val |= (periph_num << DMA_CTRL_PERIPH_Pos);
   10200:	00a89893          	slli	a7,a7,0xa
   10204:	00d8e8b3          	or	a7,a7,a3

    // Ghi cấu hình (chưa start)
    dma_ch->CTRL = ctrl_val;
   10208:	01152623          	sw	a7,12(a0)

    // Mặc định bật interrupt khi done hoặc lỗi
    dma_ch->INT_EN = DMA_INT_DONE | DMA_INT_ERR;
   1020c:	00300793          	li	a5,3
   10210:	00f52a23          	sw	a5,20(a0)
}
   10214:	00008067          	ret
    if (burst_size > 64) burst_size = 64;
   10218:	0ff67693          	zext.b	a3,a2
    ctrl_val |= (burst_size << DMA_CTRL_BURST_Pos);
   1021c:	00169693          	slli	a3,a3,0x1
    if (src_inc) ctrl_val |= DMA_CTRL_SRC_INCR_Msk;
   10220:	fc070ce3          	beqz	a4,101f8 <HAL_DMA_Config+0x28>
   10224:	fd1ff06f          	j	101f4 <HAL_DMA_Config+0x24>

00010228 <HAL_DMA_Start>:

// Bắt đầu truyền DMA
void HAL_DMA_Start(DMA_Channel_TypeDef *dma_ch) {
    if (dma_ch == NULL) return;
   10228:	00050863          	beqz	a0,10238 <HAL_DMA_Start+0x10>
    
    // Set bit START để kick DMA
    dma_ch->CTRL |= DMA_CTRL_START_Msk;
   1022c:	00c52783          	lw	a5,12(a0)
   10230:	0017e793          	ori	a5,a5,1
   10234:	00f52623          	sw	a5,12(a0)
}
   10238:	00008067          	ret

0001023c <HAL_DMA_Wait_Done>:

// Chờ DMA chạy xong (polling)
void HAL_DMA_Wait_Done(DMA_Channel_TypeDef *dma_ch) {
    if (dma_ch == NULL) return;
   1023c:	00050c63          	beqz	a0,10254 <HAL_DMA_Wait_Done+0x18>

    // Loop cho đến khi DONE = 1
    while ((dma_ch->STATUS & (1 << 1)) == 0) {
   10240:	01052783          	lw	a5,16(a0)
   10244:	0027f793          	andi	a5,a5,2
   10248:	fe078ce3          	beqz	a5,10240 <HAL_DMA_Wait_Done+0x4>
    }

    // Clear cờ DONE (W1C)
    dma_ch->INT_STAT = DMA_INT_DONE;
   1024c:	00100793          	li	a5,1
   10250:	00f52c23          	sw	a5,24(a0)
}
   10254:	00008067          	ret
    }
}

// Callback mặc định (có thể override ở file khác)
__attribute__((weak)) void HAL_DMA_TransferCompleteCallback(DMA_Channel_TypeDef *dma_ch) {
   10258:	00008067          	ret

0001025c <HAL_DMA_IRQHandler>:
    if (dma_ch == NULL) return;
   1025c:	04050a63          	beqz	a0,102b0 <HAL_DMA_IRQHandler+0x54>
    if (dma_ch->INT_STAT & DMA_INT_DONE) {
   10260:	01852783          	lw	a5,24(a0)
void HAL_DMA_IRQHandler(DMA_Channel_TypeDef *dma_ch) {
   10264:	ff010113          	addi	sp,sp,-16
   10268:	00812423          	sw	s0,8(sp)
   1026c:	00112623          	sw	ra,12(sp)
    if (dma_ch->INT_STAT & DMA_INT_DONE) {
   10270:	0017f793          	andi	a5,a5,1
   10274:	00050413          	mv	s0,a0
   10278:	02079463          	bnez	a5,102a0 <HAL_DMA_IRQHandler+0x44>
    if (dma_ch->INT_STAT & DMA_INT_ERR) {
   1027c:	01842783          	lw	a5,24(s0)
   10280:	0027f793          	andi	a5,a5,2
   10284:	00078663          	beqz	a5,10290 <HAL_DMA_IRQHandler+0x34>
        dma_ch->INT_STAT = DMA_INT_ERR;
   10288:	00200793          	li	a5,2
   1028c:	00f42c23          	sw	a5,24(s0)
}
   10290:	00c12083          	lw	ra,12(sp)
   10294:	00812403          	lw	s0,8(sp)
   10298:	01010113          	addi	sp,sp,16
   1029c:	00008067          	ret
        dma_ch->INT_STAT = DMA_INT_DONE;
   102a0:	00100793          	li	a5,1
   102a4:	00f52c23          	sw	a5,24(a0)
        HAL_DMA_TransferCompleteCallback(dma_ch);
   102a8:	29c000ef          	jal	10544 <HAL_DMA_TransferCompleteCallback>
   102ac:	fd1ff06f          	j	1027c <HAL_DMA_IRQHandler+0x20>
   102b0:	00008067          	ret

000102b4 <HAL_GPIO_Init>:

/**
 * Khởi tạo cấu hình cho các chân GPIO
 */
void HAL_GPIO_Init(GPIO_TypeDef *GPIOx, GPIO_InitTypeDef *GPIO_Init) {
    if (GPIOx == NULL || GPIO_Init == NULL) return;
   102b4:	08050063          	beqz	a0,10334 <HAL_GPIO_Init+0x80>
   102b8:	06058e63          	beqz	a1,10334 <HAL_GPIO_Init+0x80>

    for (int i = 0; i < 32; i++) {
        uint32_t current_pin = (1 << i);
        
        if (GPIO_Init->Pin & current_pin) {
   102bc:	0005a883          	lw	a7,0(a1)
    for (int i = 0; i < 32; i++) {
   102c0:	00000793          	li	a5,0
        uint32_t current_pin = (1 << i);
   102c4:	00100613          	li	a2,1
            } 
            else if (GPIO_Init->Mode == GPIO_MODE_INPUT) {
                GPIOx->DIR &= ~current_pin;      // set input
                GPIOx->INT_MASK &= ~current_pin; // không dùng ngắt
            } 
            else if (GPIO_Init->Mode == GPIO_MODE_IT) {
   102c8:	00200e13          	li	t3,2
    for (int i = 0; i < 32; i++) {
   102cc:	02000813          	li	a6,32
   102d0:	02c0006f          	j	102fc <HAL_GPIO_Init+0x48>
                GPIOx->DIR &= ~current_pin;      // set input
   102d4:	fff74313          	not	t1,a4
            else if (GPIO_Init->Mode == GPIO_MODE_INPUT) {
   102d8:	06069063          	bnez	a3,10338 <HAL_GPIO_Init+0x84>
                GPIOx->DIR &= ~current_pin;      // set input
   102dc:	00852703          	lw	a4,8(a0)
   102e0:	00677733          	and	a4,a4,t1
   102e4:	00e52423          	sw	a4,8(a0)
                GPIOx->INT_MASK &= ~current_pin; // không dùng ngắt
   102e8:	00c52703          	lw	a4,12(a0)
   102ec:	00e37333          	and	t1,t1,a4
   102f0:	00652623          	sw	t1,12(a0)
    for (int i = 0; i < 32; i++) {
   102f4:	00178793          	addi	a5,a5,1
   102f8:	03078e63          	beq	a5,a6,10334 <HAL_GPIO_Init+0x80>
        uint32_t current_pin = (1 << i);
   102fc:	00f61733          	sll	a4,a2,a5
        if (GPIO_Init->Pin & current_pin) {
   10300:	011776b3          	and	a3,a4,a7
   10304:	fe0688e3          	beqz	a3,102f4 <HAL_GPIO_Init+0x40>
            if (GPIO_Init->Mode == GPIO_MODE_OUTPUT) {
   10308:	0045a683          	lw	a3,4(a1)
   1030c:	fcc694e3          	bne	a3,a2,102d4 <HAL_GPIO_Init+0x20>
                GPIOx->DIR |= current_pin;       // set output
   10310:	00852303          	lw	t1,8(a0)
                GPIOx->INT_MASK &= ~current_pin; // không dùng ngắt
   10314:	fff74693          	not	a3,a4
    for (int i = 0; i < 32; i++) {
   10318:	00178793          	addi	a5,a5,1
                GPIOx->DIR |= current_pin;       // set output
   1031c:	00e36733          	or	a4,t1,a4
   10320:	00e52423          	sw	a4,8(a0)
                GPIOx->INT_MASK &= ~current_pin; // không dùng ngắt
   10324:	00c52703          	lw	a4,12(a0)
   10328:	00e6f733          	and	a4,a3,a4
   1032c:	00e52623          	sw	a4,12(a0)
    for (int i = 0; i < 32; i++) {
   10330:	fd0796e3          	bne	a5,a6,102fc <HAL_GPIO_Init+0x48>
                GPIOx->DIR &= ~current_pin;      // input mode
                GPIOx->INT_MASK |= current_pin;  // bật interrupt
            }
        }
    }
}
   10334:	00008067          	ret
            else if (GPIO_Init->Mode == GPIO_MODE_IT) {
   10338:	fbc69ee3          	bne	a3,t3,102f4 <HAL_GPIO_Init+0x40>
                GPIOx->DIR &= ~current_pin;      // input mode
   1033c:	00852303          	lw	t1,8(a0)
   10340:	fff74693          	not	a3,a4
   10344:	0066f6b3          	and	a3,a3,t1
   10348:	00d52423          	sw	a3,8(a0)
                GPIOx->INT_MASK |= current_pin;  // bật interrupt
   1034c:	00c52683          	lw	a3,12(a0)
   10350:	00e6e733          	or	a4,a3,a4
   10354:	00e52623          	sw	a4,12(a0)
   10358:	f9dff06f          	j	102f4 <HAL_GPIO_Init+0x40>

0001035c <HAL_GPIO_WritePin>:

/**
 * Ghi giá trị ra chân GPIO
 */
void HAL_GPIO_WritePin(GPIO_TypeDef *GPIOx, uint16_t GPIO_Pin, GPIO_PinState PinState) {
    if (GPIOx == NULL) return;
   1035c:	00050e63          	beqz	a0,10378 <HAL_GPIO_WritePin+0x1c>

    if (PinState == GPIO_PIN_SET) {
   10360:	00100793          	li	a5,1
   10364:	00f60c63          	beq	a2,a5,1037c <HAL_GPIO_WritePin+0x20>
        GPIOx->DATA_OUT |= GPIO_Pin;
    } else {
        GPIOx->DATA_OUT &= ~GPIO_Pin;
   10368:	00452783          	lw	a5,4(a0)
   1036c:	fff5c593          	not	a1,a1
   10370:	00f5f5b3          	and	a1,a1,a5
   10374:	00b52223          	sw	a1,4(a0)
    }
}
   10378:	00008067          	ret
        GPIOx->DATA_OUT |= GPIO_Pin;
   1037c:	00452783          	lw	a5,4(a0)
   10380:	00f5e5b3          	or	a1,a1,a5
   10384:	00b52223          	sw	a1,4(a0)
   10388:	00008067          	ret

0001038c <HAL_GPIO_TogglePin>:

/**
 * Đảo trạng thái chân (hay dùng để blink LED)
 */
void HAL_GPIO_TogglePin(GPIO_TypeDef *GPIOx, uint16_t GPIO_Pin) {
    if (GPIOx == NULL) return;
   1038c:	00050863          	beqz	a0,1039c <HAL_GPIO_TogglePin+0x10>
    GPIOx->DATA_OUT ^= GPIO_Pin; // đảo bit bằng XOR
   10390:	00452783          	lw	a5,4(a0)
   10394:	00f5c5b3          	xor	a1,a1,a5
   10398:	00b52223          	sw	a1,4(a0)
}
   1039c:	00008067          	ret

000103a0 <HAL_GPIO_ReadPin>:

/**
 * Đọc giá trị từ chân GPIO
 */
GPIO_PinState HAL_GPIO_ReadPin(GPIO_TypeDef *GPIOx, uint16_t GPIO_Pin) {
    if (GPIOx == NULL) return GPIO_PIN_RESET;
   103a0:	00050a63          	beqz	a0,103b4 <HAL_GPIO_ReadPin+0x14>

    if ((GPIOx->DATA_IN & GPIO_Pin) != 0) {
   103a4:	00052783          	lw	a5,0(a0)
   103a8:	00f5f5b3          	and	a1,a1,a5
   103ac:	00b03533          	snez	a0,a1
   103b0:	00008067          	ret
    if (GPIOx == NULL) return GPIO_PIN_RESET;
   103b4:	00000513          	li	a0,0
        return GPIO_PIN_SET;
    } else {
        return GPIO_PIN_RESET;
    }
}
   103b8:	00008067          	ret
    }
}


__attribute__((weak)) void HAL_GPIO_EXTI_Callback(uint16_t GPIO_Pin) {
   103bc:	00008067          	ret

000103c0 <HAL_GPIO_IRQHandler>:
    if (GPIOx == NULL) return;
   103c0:	08050663          	beqz	a0,1044c <HAL_GPIO_IRQHandler+0x8c>
void HAL_GPIO_IRQHandler(GPIO_TypeDef *GPIOx) {
   103c4:	fe010113          	addi	sp,sp,-32
    uint32_t it_status = GPIOx->INT_STAT;
   103c8:	01052783          	lw	a5,16(a0)
void HAL_GPIO_IRQHandler(GPIO_TypeDef *GPIOx) {
   103cc:	00912a23          	sw	s1,20(sp)
    uint32_t valid_it = it_status & GPIOx->INT_MASK;
   103d0:	00c52483          	lw	s1,12(a0)
void HAL_GPIO_IRQHandler(GPIO_TypeDef *GPIOx) {
   103d4:	00812c23          	sw	s0,24(sp)
   103d8:	01212823          	sw	s2,16(sp)
   103dc:	01312623          	sw	s3,12(sp)
   103e0:	01412423          	sw	s4,8(sp)
   103e4:	00112e23          	sw	ra,28(sp)
   103e8:	00050a13          	mv	s4,a0
    for (int i = 0; i < 32; i++) {
   103ec:	00000413          	li	s0,0
        uint32_t current_pin = (1 << i);
   103f0:	00100993          	li	s3,1
    uint32_t valid_it = it_status & GPIOx->INT_MASK;
   103f4:	00f4f4b3          	and	s1,s1,a5
    for (int i = 0; i < 32; i++) {
   103f8:	02000913          	li	s2,32
   103fc:	00c0006f          	j	10408 <HAL_GPIO_IRQHandler+0x48>
   10400:	00140413          	addi	s0,s0,1
   10404:	03240463          	beq	s0,s2,1042c <HAL_GPIO_IRQHandler+0x6c>
        uint32_t current_pin = (1 << i);
   10408:	008997b3          	sll	a5,s3,s0
        if (valid_it & current_pin) {
   1040c:	00f4f733          	and	a4,s1,a5
   10410:	fe0708e3          	beqz	a4,10400 <HAL_GPIO_IRQHandler+0x40>
            HAL_GPIO_EXTI_Callback(current_pin);
   10414:	01079513          	slli	a0,a5,0x10
   10418:	01055513          	srli	a0,a0,0x10
            GPIOx->INT_STAT = current_pin;
   1041c:	00fa2823          	sw	a5,16(s4)
    for (int i = 0; i < 32; i++) {
   10420:	00140413          	addi	s0,s0,1
            HAL_GPIO_EXTI_Callback(current_pin);
   10424:	108000ef          	jal	1052c <HAL_GPIO_EXTI_Callback>
    for (int i = 0; i < 32; i++) {
   10428:	ff2410e3          	bne	s0,s2,10408 <HAL_GPIO_IRQHandler+0x48>
}
   1042c:	01c12083          	lw	ra,28(sp)
   10430:	01812403          	lw	s0,24(sp)
   10434:	01412483          	lw	s1,20(sp)
   10438:	01012903          	lw	s2,16(sp)
   1043c:	00c12983          	lw	s3,12(sp)
   10440:	00812a03          	lw	s4,8(sp)
   10444:	02010113          	addi	sp,sp,32
   10448:	00008067          	ret
   1044c:	00008067          	ret

00010450 <i2c_init>:
static void i2c_wait_done(void) {
    while (I2C0->STAT & I2C_STAT_TRANS);
}

void i2c_init(uint16_t prescaler) {
    I2C0->PRER = prescaler;
   10450:	400047b7          	lui	a5,0x40004
   10454:	00a7a023          	sw	a0,0(a5) # 40004000 <_etext+0x3fff3570>
}
   10458:	00008067          	ret

0001045c <i2c_start>:

void i2c_start(void) {
    I2C0->CMD = I2C_CMD_STA;
   1045c:	40004737          	lui	a4,0x40004
   10460:	08000793          	li	a5,128
   10464:	00f72623          	sw	a5,12(a4) # 4000400c <_etext+0x3fff357c>
    while (I2C0->STAT & I2C_STAT_TRANS);
   10468:	01072783          	lw	a5,16(a4)
   1046c:	0027f793          	andi	a5,a5,2
   10470:	fe079ce3          	bnez	a5,10468 <i2c_start+0xc>
    i2c_wait_done();
}
   10474:	00008067          	ret

00010478 <i2c_stop>:

void i2c_stop(void) {
    I2C0->CMD = I2C_CMD_STO;
   10478:	40004737          	lui	a4,0x40004
   1047c:	04000793          	li	a5,64
   10480:	00f72623          	sw	a5,12(a4) # 4000400c <_etext+0x3fff357c>
    while (I2C0->STAT & I2C_STAT_TRANS);
   10484:	01072783          	lw	a5,16(a4)
   10488:	0027f793          	andi	a5,a5,2
   1048c:	fe079ce3          	bnez	a5,10484 <i2c_stop+0xc>
    i2c_wait_done();
}
   10490:	00008067          	ret

00010494 <i2c_write>:

// Trả về 0 nếu Slave nhận thành công (ACK=0), trả về 1 nếu NACK
uint8_t i2c_write(uint8_t data) {
    I2C0->TXR = data;
   10494:	40004737          	lui	a4,0x40004
   10498:	00a72223          	sw	a0,4(a4) # 40004004 <_etext+0x3fff3574>
    I2C0->CMD = I2C_CMD_WR;
   1049c:	01000793          	li	a5,16
   104a0:	00f72623          	sw	a5,12(a4)
    while (I2C0->STAT & I2C_STAT_TRANS);
   104a4:	01072783          	lw	a5,16(a4)
   104a8:	0027f793          	andi	a5,a5,2
   104ac:	fe079ce3          	bnez	a5,104a4 <i2c_write+0x10>
    i2c_wait_done();
    
    // Kiểm tra bit số 7 của STAT (RxACK)
    return (I2C0->STAT & I2C_STAT_RXACK) ? 1 : 0; 
   104b0:	01072503          	lw	a0,16(a4)
   104b4:	00755513          	srli	a0,a0,0x7
}
   104b8:	00157513          	andi	a0,a0,1
   104bc:	00008067          	ret

000104c0 <i2c_read>:

// Nếu send_ack = 0, Host sẽ trả về ACK. Nếu send_ack = 1, Host trả về NACK (để kết thúc)
uint8_t i2c_read(uint8_t send_ack) {
    uint32_t cmd = I2C_CMD_RD;
   104c0:	00a03533          	snez	a0,a0
   104c4:	00351513          	slli	a0,a0,0x3
   104c8:	02050513          	addi	a0,a0,32
    if (send_ack) {
        cmd |= I2C_CMD_ACK;
    }
    
    I2C0->CMD = cmd;
   104cc:	40004737          	lui	a4,0x40004
   104d0:	00a72623          	sw	a0,12(a4) # 4000400c <_etext+0x3fff357c>
    while (I2C0->STAT & I2C_STAT_TRANS);
   104d4:	01072783          	lw	a5,16(a4)
   104d8:	0027f793          	andi	a5,a5,2
   104dc:	fe079ce3          	bnez	a5,104d4 <i2c_read+0x14>
    i2c_wait_done();
    
    return (uint8_t)(I2C0->RXR & 0xFF);
   104e0:	00872503          	lw	a0,8(a4)
}
   104e4:	0ff57513          	zext.b	a0,a0
   104e8:	00008067          	ret

000104ec <HAL_UART_RxCallback>:
 * 3. TẦNG ỨNG DỤNG: BUSINESS LOGIC & CALLBACKS
 * ================================================================== */

// Callback: Xử lý dữ liệu UART
void HAL_UART_RxCallback(UART_HandleTypeDef *huart, uint8_t rx_data) {
    if (huart->Instance == UART0) {
   104ec:	00052703          	lw	a4,0(a0)
   104f0:	400007b7          	lui	a5,0x40000
   104f4:	00f70463          	beq	a4,a5,104fc <HAL_UART_RxCallback+0x10>
        else if (rx_data == '0') {
            HAL_GPIO_WritePin(GPIO0, GPIO_PIN_0, GPIO_PIN_RESET);
            // printf("-> Da tat LED tren Chan 0!\n");
        }
    }
}
   104f8:	00008067          	ret
        if (rx_data == '1') {
   104fc:	03100793          	li	a5,49
   10500:	00f58e63          	beq	a1,a5,1051c <HAL_UART_RxCallback+0x30>
        else if (rx_data == '0') {
   10504:	03000793          	li	a5,48
   10508:	fef598e3          	bne	a1,a5,104f8 <HAL_UART_RxCallback+0xc>
            HAL_GPIO_WritePin(GPIO0, GPIO_PIN_0, GPIO_PIN_RESET);
   1050c:	00000613          	li	a2,0
   10510:	00100593          	li	a1,1
   10514:	40001537          	lui	a0,0x40001
   10518:	e45ff06f          	j	1035c <HAL_GPIO_WritePin>
            HAL_GPIO_WritePin(GPIO0, GPIO_PIN_0, GPIO_PIN_SET); 
   1051c:	00100613          	li	a2,1
   10520:	00060593          	mv	a1,a2
   10524:	40001537          	lui	a0,0x40001
   10528:	e35ff06f          	j	1035c <HAL_GPIO_WritePin>

0001052c <HAL_GPIO_EXTI_Callback>:

// Callback: Xử lý sau khi nhấn nút trên mạch
void HAL_GPIO_EXTI_Callback(uint16_t GPIO_Pin) {
    if (GPIO_Pin == GPIO_PIN_1) {
   1052c:	00200793          	li	a5,2
   10530:	00f50463          	beq	a0,a5,10538 <HAL_GPIO_EXTI_Callback+0xc>
        // printf("\n[GPIO EVENT] Phat hien nhan nut o Chan 1!\n");
        
        // Bạn có thể cho LED chớp 1 cái để phản hồi:
        HAL_GPIO_TogglePin(GPIO0, GPIO_PIN_0);
    }
}
   10534:	00008067          	ret
        HAL_GPIO_TogglePin(GPIO0, GPIO_PIN_0);
   10538:	00100593          	li	a1,1
   1053c:	40001537          	lui	a0,0x40001
   10540:	e4dff06f          	j	1038c <HAL_GPIO_TogglePin>

00010544 <HAL_DMA_TransferCompleteCallback>:
void HAL_DMA_TransferCompleteCallback(DMA_Channel_TypeDef *dma_ch) {
    // if (dma_ch == DMA_CH0) {
    //     // printf("\n[DMA EVENT] Kenh 0 da copy xong du lieu!\n");
    //     // printf("-> Gia tri dst_arr[0]: %lu (Ky vong: 1)\n", dst_arr[0]); 
    // }
   10544:	00008067          	ret

00010548 <plic_set_priority>:
 * ================================================================== */
#include "plic.h"

// Set độ ưu tiên cho 1 ngắt (0-7, số càng to ưu tiên càng cao)
void plic_set_priority(uint32_t irq_id, uint32_t priority) {
    PLIC_PRIORITY(irq_id) = priority & 0x07; // Chỉ lấy 3 bit
   10548:	110007b7          	lui	a5,0x11000
   1054c:	00f50533          	add	a0,a0,a5
   10550:	0075f593          	andi	a1,a1,7
   10554:	00251513          	slli	a0,a0,0x2
   10558:	00b52023          	sw	a1,0(a0) # 40001000 <_etext+0x3fff0570>
}
   1055c:	00008067          	ret

00010560 <plic_enable_interrupt>:

// Cho phép ngắt lọt qua PLIC
void plic_enable_interrupt(uint32_t irq_id) {
    PLIC_ENABLE |= (1 << irq_id);
   10560:	44002737          	lui	a4,0x44002
   10564:	00072683          	lw	a3,0(a4) # 44002000 <_etext+0x43ff1570>
   10568:	00100793          	li	a5,1
   1056c:	00a797b3          	sll	a5,a5,a0
   10570:	00d7e7b3          	or	a5,a5,a3
   10574:	00f72023          	sw	a5,0(a4)
}
   10578:	00008067          	ret

0001057c <plic_disable_interrupt>:

void plic_disable_interrupt(uint32_t irq_id) {
    PLIC_ENABLE &= ~(1 << irq_id);
   1057c:	44002737          	lui	a4,0x44002
   10580:	00072683          	lw	a3,0(a4) # 44002000 <_etext+0x43ff1570>
   10584:	00100793          	li	a5,1
   10588:	00a797b3          	sll	a5,a5,a0
   1058c:	fff7c793          	not	a5,a5
   10590:	00d7f7b3          	and	a5,a5,a3
   10594:	00f72023          	sw	a5,0(a4)
}
   10598:	00008067          	ret

0001059c <plic_set_threshold>:

// Cấu hình ngưỡng chặn (Thường set = 0 để nhận mọi ngắt)
void plic_set_threshold(uint32_t threshold) {
    PLIC_THRESHOLD = threshold & 0x07;
   1059c:	00757513          	andi	a0,a0,7
   105a0:	440047b7          	lui	a5,0x44004
   105a4:	00a7a023          	sw	a0,0(a5) # 44004000 <_etext+0x43ff3570>
}
   105a8:	00008067          	ret

000105ac <plic_claim>:

// CPU đọc ID của ngắt vừa xảy ra
uint32_t plic_claim(void) {
    return PLIC_CLAIM;
   105ac:	440047b7          	lui	a5,0x44004
   105b0:	0047a503          	lw	a0,4(a5) # 44004004 <_etext+0x43ff3574>
}
   105b4:	00008067          	ret

000105b8 <plic_complete>:

// CPU báo cho PLIC đã xử lý xong ngắt đó
void plic_complete(uint32_t irq_id) {
    if (irq_id != 0) {
   105b8:	00050663          	beqz	a0,105c4 <plic_complete+0xc>
        PLIC_CLAIM = irq_id; 
   105bc:	440047b7          	lui	a5,0x44004
   105c0:	00a7a223          	sw	a0,4(a5) # 44004004 <_etext+0x43ff3574>
    }
   105c4:	00008067          	ret

000105c8 <spi_init>:
#if CONFIG_HAS_SPI
#include "spi.h"

void spi_init(uint8_t cpol, uint8_t cpha, uint32_t clock_div) {
    // Ghi CPOL và CPHA vào CTRL
    SPI0->CTRL = ((cpol & 1) << 1) | (cpha & 1);
   105c8:	00151513          	slli	a0,a0,0x1
   105cc:	00257513          	andi	a0,a0,2
   105d0:	0015f593          	andi	a1,a1,1
   105d4:	400037b7          	lui	a5,0x40003
   105d8:	00b56533          	or	a0,a0,a1
   105dc:	00a7a023          	sw	a0,0(a5) # 40003000 <_etext+0x3fff2570>
    // Setup bộ chia tần số Clock
    SPI0->DIV = clock_div;
   105e0:	00c7a423          	sw	a2,8(a5)
    // Mặc định nhả chân CS (Mức 1 = Không chọn Slave)
    SPI0->CS = 1;
   105e4:	00100713          	li	a4,1
   105e8:	00e7a223          	sw	a4,4(a5)
}
   105ec:	00008067          	ret

000105f0 <spi_set_cs>:

void spi_set_cs(uint8_t state) {
    // Kéo CS xuống 0 để giao tiếp, 1 để ngắt
    SPI0->CS = state & 1;
   105f0:	00157513          	andi	a0,a0,1
   105f4:	400037b7          	lui	a5,0x40003
   105f8:	00a7a223          	sw	a0,4(a5) # 40003004 <_etext+0x3fff2574>
}
   105fc:	00008067          	ret

00010600 <spi_transfer>:

// Truyền và nhận dữ liệu đồng thời (Đặc trưng của giao thức SPI)
uint8_t spi_transfer(uint8_t data) {
    // 1. Chờ đến khi SPI rảnh rỗi
    while (SPI0->STATUS & SPI_STATUS_BUSY);
   10600:	40003737          	lui	a4,0x40003
   10604:	01472783          	lw	a5,20(a4) # 40003014 <_etext+0x3fff2584>
   10608:	0017f793          	andi	a5,a5,1
   1060c:	fe079ce3          	bnez	a5,10604 <spi_transfer+0x4>

    // 2. Ghi dữ liệu vào TX (Mạch RTL sẽ tự động kích hoạt quá trình truyền)
    SPI0->TXDATA = data;
   10610:	00a72623          	sw	a0,12(a4)

    // 3. Chờ phần cứng báo DONE (Truyền xong 8 bit)
    while (!(SPI0->STATUS & SPI_STATUS_DONE));
   10614:	40003737          	lui	a4,0x40003
   10618:	01472783          	lw	a5,20(a4) # 40003014 <_etext+0x3fff2584>
   1061c:	0027f793          	andi	a5,a5,2
   10620:	fe078ce3          	beqz	a5,10618 <spi_transfer+0x18>

    // 4. Đọc dữ liệu nhận được từ MISO (Phần cứng tự xóa cờ DONE khi đọc)
    return (uint8_t)(SPI0->RXDATA & 0xFF);
   10624:	01072503          	lw	a0,16(a4)
}
   10628:	0ff57513          	zext.b	a0,a0
   1062c:	00008067          	ret

00010630 <_sbrk>:
void *_sbrk(int incr) {
    extern char _ebss; // Lấy địa chỉ cuối vùng biến BSS từ Linker Script
    static char *heap_end;
    char *prev_heap_end;

    if (heap_end == 0) {
   10630:	80000737          	lui	a4,0x80000
   10634:	01072783          	lw	a5,16(a4) # 80000010 <heap_end.0>
   10638:	00078a63          	beqz	a5,1064c <_sbrk+0x1c>
        heap_end = &_ebss;
    }
    prev_heap_end = heap_end;
    heap_end += incr;
   1063c:	00a78533          	add	a0,a5,a0
   10640:	00a72823          	sw	a0,16(a4)

    return (void *)prev_heap_end;
}
   10644:	00078513          	mv	a0,a5
   10648:	00008067          	ret
   1064c:	800007b7          	lui	a5,0x80000
   10650:	01478793          	addi	a5,a5,20 # 80000014 <_ebss>
    heap_end += incr;
   10654:	00a78533          	add	a0,a5,a0
   10658:	00a72823          	sw	a0,16(a4)
}
   1065c:	00078513          	mv	a0,a5
   10660:	00008067          	ret

00010664 <_write>:

int _write(int file, char *ptr, int len) {
   10664:	ff010113          	addi	sp,sp,-16
   10668:	00812423          	sw	s0,8(sp)
    HAL_UART_Transmit(&huart0, (uint8_t*)ptr, len);
   1066c:	80000537          	lui	a0,0x80000
int _write(int file, char *ptr, int len) {
   10670:	00060413          	mv	s0,a2
    HAL_UART_Transmit(&huart0, (uint8_t*)ptr, len);
   10674:	01061613          	slli	a2,a2,0x10
   10678:	00850513          	addi	a0,a0,8 # 80000008 <huart0>
   1067c:	01065613          	srli	a2,a2,0x10
int _write(int file, char *ptr, int len) {
   10680:	00112623          	sw	ra,12(sp)
    HAL_UART_Transmit(&huart0, (uint8_t*)ptr, len);
   10684:	190000ef          	jal	10814 <HAL_UART_Transmit>
    return len;
}
   10688:	00c12083          	lw	ra,12(sp)
   1068c:	00040513          	mv	a0,s0
   10690:	00812403          	lw	s0,8(sp)
   10694:	01010113          	addi	sp,sp,16
   10698:	00008067          	ret

0001069c <_close>:
// Các hàm rỗng để chống báo lỗi thư viện
int _close(int file) { return -1; }
   1069c:	fff00513          	li	a0,-1
   106a0:	00008067          	ret

000106a4 <_fstat>:
int _fstat(int file, void *st) { return 0; }
   106a4:	00000513          	li	a0,0
   106a8:	00008067          	ret

000106ac <_isatty>:
int _isatty(int file) { return 1; }
   106ac:	00100513          	li	a0,1
   106b0:	00008067          	ret

000106b4 <_lseek>:
int _lseek(int file, int ptr, int dir) { return 0; }
   106b4:	00000513          	li	a0,0
   106b8:	00008067          	ret

000106bc <_read>:
   106bc:	00000513          	li	a0,0
   106c0:	00008067          	ret

000106c4 <syscon_enable_clock>:
// --------------------------------------------------------
// CÁC HÀM ĐIỀU KHIỂN THỦ CÔNG
// --------------------------------------------------------
// Cấp xung nhịp cho một khối ngoại vi
void syscon_enable_clock(uint8_t peripheral_bit) {
    if (peripheral_bit > 6) return; // Chỉ có 7 bit (0-6)
   106c4:	00600793          	li	a5,6
   106c8:	00a7ee63          	bltu	a5,a0,106e4 <syscon_enable_clock+0x20>
    SYSCON_CLK_GATE |= (1 << peripheral_bit);
   106cc:	40007737          	lui	a4,0x40007
   106d0:	00472683          	lw	a3,4(a4) # 40007004 <_etext+0x3fff6574>
   106d4:	00100793          	li	a5,1
   106d8:	00a797b3          	sll	a5,a5,a0
   106dc:	00d7e7b3          	or	a5,a5,a3
   106e0:	00f72223          	sw	a5,4(a4)
}
   106e4:	00008067          	ret

000106e8 <syscon_disable_clock>:

// Hàm ngắt xung nhịp để tiết kiệm điện
void syscon_disable_clock(uint8_t peripheral_bit) {
    if (peripheral_bit > 6) return;
   106e8:	00600793          	li	a5,6
   106ec:	02a7e063          	bltu	a5,a0,1070c <syscon_disable_clock+0x24>
    SYSCON_CLK_GATE &= ~(1 << peripheral_bit);
   106f0:	40007737          	lui	a4,0x40007
   106f4:	00472683          	lw	a3,4(a4) # 40007004 <_etext+0x3fff6574>
   106f8:	00100793          	li	a5,1
   106fc:	00a797b3          	sll	a5,a5,a0
   10700:	fff7c793          	not	a5,a5
   10704:	00d7f7b3          	and	a5,a5,a3
   10708:	00f72223          	sw	a5,4(a4)
}
   1070c:	00008067          	ret

00010710 <syscon_set_boot_address>:

// Hàm đổi địa chỉ Boot (dùng cho Bootloader nhảy sang vùng nhớ khác)
void syscon_set_boot_address(uint16_t addr_offset) {
    SYSCON_RESET_VECTOR = (uint32_t)addr_offset;
   10710:	400077b7          	lui	a5,0x40007
   10714:	00a7a023          	sw	a0,0(a5) # 40007000 <_etext+0x3fff6570>
}
   10718:	00008067          	ret

0001071c <syscon_init_clocks>:
    #if CONFIG_HAS_ACCEL
        clock_mask |= (1 << SYSCON_CLK_ACCEL);
    #endif

    // 3. Ghi 1 lần duy nhất xuống thanh ghi để bật đồng loạt
    SYSCON_CLK_GATE = clock_mask;
   1071c:	400077b7          	lui	a5,0x40007
   10720:	05e00713          	li	a4,94
   10724:	00e7a223          	sw	a4,4(a5) # 40007004 <_etext+0x3fff6574>
   10728:	00008067          	ret

0001072c <system_trap_handler>:
void system_trap_handler(uint32_t mcause, uint32_t mepc) {
    
    // ---------------------------------------------------------
    // LUỒNG 1: NGẮT NGOẠI VI TỪ PLIC (UART, DMA, GPIO...)
    // ---------------------------------------------------------
    if (mcause == CAUSE_MACHINE_EXTERNAL_INT) {
   1072c:	800007b7          	lui	a5,0x80000
   10730:	00b78793          	addi	a5,a5,11 # 8000000b <huart0+0x3>
   10734:	02f50463          	beq	a0,a5,1075c <system_trap_handler+0x30>
    } 
    
    // ---------------------------------------------------------
    // LUỒNG 2: NGẮT THỜI GIAN TỪ CLINT (SYSTEM TICK)
    // ---------------------------------------------------------
    else if (mcause == CAUSE_MACHINE_TIMER_INT) {
   10738:	800007b7          	lui	a5,0x80000
   1073c:	00778793          	addi	a5,a5,7 # 80000007 <src_arr+0x3>
   10740:	04f50c63          	beq	a0,a5,10798 <system_trap_handler+0x6c>
    } 
    
    // ---------------------------------------------------------
    // LUỒNG 3: NGẮT PHẦN MỀM TỪ CLINT
    // ---------------------------------------------------------
    else if (mcause == CAUSE_MACHINE_SOFTWARE_INT) {
   10744:	800007b7          	lui	a5,0x80000
   10748:	00378793          	addi	a5,a5,3 # 80000003 <dst_arr+0x3>
   1074c:	04f50463          	beq	a0,a5,10794 <system_trap_handler+0x68>
        else if (mcause == 5)    {}// printf("Error: Load Access Fault (Invalid Read Address)\n");
        else if (mcause == 7)    {}// printf("Error: Store Access Fault (Invalid Write Address)\n");
        
        // Treo hệ thống để bảo vệ phần cứng
        while(1) {
            __asm__ volatile ("wfi");
   10750:	10500073          	wfi
   10754:	10500073          	wfi
        while(1) {
   10758:	ff9ff06f          	j	10750 <system_trap_handler+0x24>
void system_trap_handler(uint32_t mcause, uint32_t mepc) {
   1075c:	ff010113          	addi	sp,sp,-16
   10760:	00812423          	sw	s0,8(sp)
   10764:	00112623          	sw	ra,12(sp)
        uint32_t irq_id = plic_claim();
   10768:	e45ff0ef          	jal	105ac <plic_claim>
        if (irq_id == IRQ_UART) {
   1076c:	00100793          	li	a5,1
        uint32_t irq_id = plic_claim();
   10770:	00050413          	mv	s0,a0
        if (irq_id == IRQ_UART) {
   10774:	02f50a63          	beq	a0,a5,107a8 <system_trap_handler+0x7c>
        else if (irq_id == IRQ_GPIO) {
   10778:	00800793          	li	a5,8
   1077c:	04f50663          	beq	a0,a5,107c8 <system_trap_handler+0x9c>
        if (irq_id != 0) {
   10780:	02051a63          	bnez	a0,107b4 <system_trap_handler+0x88>
        }
    }
   10784:	00c12083          	lw	ra,12(sp)
   10788:	00812403          	lw	s0,8(sp)
   1078c:	01010113          	addi	sp,sp,16
   10790:	00008067          	ret
        clint_clear_soft_irq();
   10794:	9a1ff06f          	j	10134 <clint_clear_soft_irq>
        clint_set_timer_ms(1000, 200000000); 
   10798:	0bebc5b7          	lui	a1,0xbebc
   1079c:	20058593          	addi	a1,a1,512 # bebc200 <_etext+0xbeab770>
   107a0:	3e800513          	li	a0,1000
   107a4:	921ff06f          	j	100c4 <clint_set_timer_ms>
            HAL_UART_IRQHandler(&huart0);
   107a8:	80000537          	lui	a0,0x80000
   107ac:	00850513          	addi	a0,a0,8 # 80000008 <huart0>
   107b0:	0c0000ef          	jal	10870 <HAL_UART_IRQHandler>
            plic_complete(irq_id);
   107b4:	00040513          	mv	a0,s0
   107b8:	00812403          	lw	s0,8(sp)
   107bc:	00c12083          	lw	ra,12(sp)
   107c0:	01010113          	addi	sp,sp,16
            plic_complete(irq_id);
   107c4:	df5ff06f          	j	105b8 <plic_complete>
            HAL_GPIO_IRQHandler(GPIO0);
   107c8:	40001537          	lui	a0,0x40001
   107cc:	bf5ff0ef          	jal	103c0 <HAL_GPIO_IRQHandler>
        if (irq_id != 0) {
   107d0:	fe5ff06f          	j	107b4 <system_trap_handler+0x88>

000107d4 <HAL_UART_Init>:

// =========================================================
// KHỞI TẠO UART
// =========================================================
void HAL_UART_Init(UART_HandleTypeDef *huart, uint32_t sys_clk, uint32_t baudrate) {
    if (huart == NULL || huart->Instance == NULL) return; 
   107d4:	02050e63          	beqz	a0,10810 <HAL_UART_Init+0x3c>
   107d8:	00052783          	lw	a5,0(a0) # 40001000 <_etext+0x3fff0570>
   107dc:	02078a63          	beqz	a5,10810 <HAL_UART_Init+0x3c>

    huart->State = HAL_UART_STATE_BUSY;

    // 1. Tính bộ chia cho TX (Chạy 1x - mỗi nhịp 1 bit)
    uint32_t tx_divisor = sys_clk / baudrate;
   107e0:	02c5d733          	divu	a4,a1,a2
    
    // 2. Tính bộ chia cho RX (Chạy 16x - 16 nhịp mới được 1 bit)
    uint32_t rx_divisor = sys_clk / (baudrate * 16);
   107e4:	00461613          	slli	a2,a2,0x4
    
    // 3. Ghi vào thanh ghi: [31:16] là RX_DIV, [15:0] là TX_DIV
    huart->Instance->CLK_DIV = (rx_divisor << 16) | (tx_divisor & 0xFFFF);

    // Bật RX interrupt, tắt TX interrupt và DMA
    huart->Instance->DMA_INT = 0x02;
   107e8:	00200813          	li	a6,2

    huart->State = HAL_UART_STATE_READY;
   107ec:	00100693          	li	a3,1
    uint32_t rx_divisor = sys_clk / (baudrate * 16);
   107f0:	02c5d5b3          	divu	a1,a1,a2
    huart->Instance->CLK_DIV = (rx_divisor << 16) | (tx_divisor & 0xFFFF);
   107f4:	01071713          	slli	a4,a4,0x10
   107f8:	01075713          	srli	a4,a4,0x10
   107fc:	01059593          	slli	a1,a1,0x10
   10800:	00e5e5b3          	or	a1,a1,a4
   10804:	00b7a023          	sw	a1,0(a5)
    huart->Instance->DMA_INT = 0x02;
   10808:	0107a823          	sw	a6,16(a5)
    huart->State = HAL_UART_STATE_READY;
   1080c:	00d52223          	sw	a3,4(a0)
}
   10810:	00008067          	ret

00010814 <HAL_UART_Transmit>:
// =========================================================
// TRUYỀN DỮ LIỆU (POLLING)
// =========================================================
void HAL_UART_Transmit(UART_HandleTypeDef *huart, uint8_t *pData, uint16_t Size) {
    if (huart->State != HAL_UART_STATE_READY) return; 
   10814:	00452703          	lw	a4,4(a0)
   10818:	00100793          	li	a5,1
   1081c:	04f71663          	bne	a4,a5,10868 <HAL_UART_Transmit+0x54>
    if (pData == NULL || Size == 0) return;
   10820:	04058463          	beqz	a1,10868 <HAL_UART_Transmit+0x54>
   10824:	04060263          	beqz	a2,10868 <HAL_UART_Transmit+0x54>

    huart->State = HAL_UART_STATE_BUSY_TX;

    for (uint16_t i = 0; i < Size; i++) {
        // Nếu FIFO đầy thì chờ
        while ((huart->Instance->STATUS & (1 << 2)) != 0) {
   10828:	00052703          	lw	a4,0(a0)
    huart->State = HAL_UART_STATE_BUSY_TX;
   1082c:	00300793          	li	a5,3
   10830:	00c586b3          	add	a3,a1,a2
   10834:	00f52223          	sw	a5,4(a0)
        while ((huart->Instance->STATUS & (1 << 2)) != 0) {
   10838:	00c72783          	lw	a5,12(a4)
   1083c:	0047f793          	andi	a5,a5,4
   10840:	fe079ce3          	bnez	a5,10838 <HAL_UART_Transmit+0x24>
        }
        
        // Ghi từng byte vào TX
        huart->Instance->TX_DATA = pData[i];
   10844:	0005c783          	lbu	a5,0(a1)
    for (uint16_t i = 0; i < Size; i++) {
   10848:	00158593          	addi	a1,a1,1
        huart->Instance->TX_DATA = pData[i];
   1084c:	00f72223          	sw	a5,4(a4)
    for (uint16_t i = 0; i < Size; i++) {
   10850:	fed594e3          	bne	a1,a3,10838 <HAL_UART_Transmit+0x24>
    }

    // Chờ gửi xong hẳn (shift register rỗng)
    while ((huart->Instance->STATUS & (1 << 4)) != 0);
   10854:	00c72783          	lw	a5,12(a4)
   10858:	0107f793          	andi	a5,a5,16
   1085c:	fe079ce3          	bnez	a5,10854 <HAL_UART_Transmit+0x40>

    huart->State = HAL_UART_STATE_READY;
   10860:	00100793          	li	a5,1
   10864:	00f52223          	sw	a5,4(a0)
}
   10868:	00008067          	ret
}*/


__attribute__((weak)) void HAL_UART_RxCallback(UART_HandleTypeDef *huart, uint8_t rx_data) {

   1086c:	00008067          	ret

00010870 <HAL_UART_IRQHandler>:
    if ((huart->Instance->STATUS & (1 << 3)) == 0) {
   10870:	00052703          	lw	a4,0(a0)
   10874:	00c72783          	lw	a5,12(a4)
   10878:	0087f793          	andi	a5,a5,8
   1087c:	00078463          	beqz	a5,10884 <HAL_UART_IRQHandler+0x14>
}
   10880:	00008067          	ret
        uint8_t rx_data = (uint8_t)(huart->Instance->RX_DATA & 0xFF);
   10884:	00872583          	lw	a1,8(a4)
        HAL_UART_RxCallback(huart, rx_data);
   10888:	0ff5f593          	zext.b	a1,a1
   1088c:	c61ff06f          	j	104ec <HAL_UART_RxCallback>

00010890 <HAL_WDT_Init>:
#include "wdt.h"

// Khởi tạo watchdog timer
void HAL_WDT_Init(WDT_TypeDef *hwdt, uint32_t timeout_ticks) {
    if (hwdt == NULL) return;
   10890:	00050c63          	beqz	a0,108a8 <HAL_WDT_Init+0x18>

    // Set thời gian timeout (tính theo số tick của clock)
    hwdt->LOAD = timeout_ticks;
   10894:	00b52023          	sw	a1,0(a0)

    // Enable WDT + cho phép reset khi hết thời gian
    hwdt->CTRL = 0x03; 
   10898:	00300793          	li	a5,3
   1089c:	00f52423          	sw	a5,8(a0)
// Refresh watchdog (kick)
void HAL_WDT_Refresh(WDT_TypeDef *hwdt) {
    if (hwdt == NULL) return;
    
    // Ghi giá trị vào FEED để reset bộ đếm
    hwdt->FEED = 0x1; 
   108a0:	00100793          	li	a5,1
   108a4:	00f52623          	sw	a5,12(a0)
}
   108a8:	00008067          	ret

000108ac <HAL_WDT_Refresh>:
    if (hwdt == NULL) return;
   108ac:	00050663          	beqz	a0,108b8 <HAL_WDT_Refresh+0xc>
    hwdt->FEED = 0x1; 
   108b0:	00100793          	li	a5,1
   108b4:	00f52623          	sw	a5,12(a0)
   108b8:	00008067          	ret
   108bc:	0000                	.insn	2, 0x
	...

000108c0 <trap_entry>:
.global trap_entry
.align 4 /* Vector ngắt  phải căn lề 4 byte */

trap_entry:
    /* 1. Xin cấp phát 128 byte (32 thanh ghi x 4 byte) trên đỉnh Stack hiện tại */
    addi sp, sp, -128
   108c0:	f8010113          	addi	sp,sp,-128

    /* 2. Lưu toàn bộ 31 thanh ghi đa dụng (x1 đến x31) vào Stack (Bỏ qua x0 vì luôn bằng 0) */
    sw ra, 0(sp)
   108c4:	00112023          	sw	ra,0(sp)
    sw t0, 4(sp)
   108c8:	00512223          	sw	t0,4(sp)
    sw t1, 8(sp)
   108cc:	00612423          	sw	t1,8(sp)
    sw t2, 12(sp)
   108d0:	00712623          	sw	t2,12(sp)
    sw a0, 16(sp)
   108d4:	00a12823          	sw	a0,16(sp)
    sw a1, 20(sp)
   108d8:	00b12a23          	sw	a1,20(sp)
    sw a2, 24(sp)
   108dc:	00c12c23          	sw	a2,24(sp)
    sw a3, 28(sp)
   108e0:	00d12e23          	sw	a3,28(sp)
    sw a4, 32(sp)
   108e4:	02e12023          	sw	a4,32(sp)
    sw a5, 36(sp)
   108e8:	02f12223          	sw	a5,36(sp)
    sw a6, 40(sp)
   108ec:	03012423          	sw	a6,40(sp)
    sw a7, 44(sp)
   108f0:	03112623          	sw	a7,44(sp)
    sw t3, 48(sp)
   108f4:	03c12823          	sw	t3,48(sp)
    sw t4, 52(sp)
   108f8:	03d12a23          	sw	t4,52(sp)
    sw t5, 56(sp)
   108fc:	03e12c23          	sw	t5,56(sp)
    sw t6, 60(sp)
   10900:	03f12e23          	sw	t6,60(sp)

    /* 3. Gọi hàm C xử lý ngắt tổng (Truyền mcause và mepc làm tham số a0, a1) */
    csrr a0, mcause
   10904:	34202573          	csrr	a0,mcause
    csrr a1, mepc
   10908:	341025f3          	csrr	a1,mepc
    call system_trap_handler
   1090c:	e21ff0ef          	jal	1072c <system_trap_handler>

    /* 4. Phục hồi lại toàn bộ 31 thanh ghi từ Stack */
    lw ra, 0(sp)
   10910:	00012083          	lw	ra,0(sp)
    lw t0, 4(sp)
   10914:	00412283          	lw	t0,4(sp)
    lw t1, 8(sp)
   10918:	00812303          	lw	t1,8(sp)
    lw t2, 12(sp)
   1091c:	00c12383          	lw	t2,12(sp)
    lw a0, 16(sp)
   10920:	01012503          	lw	a0,16(sp)
    lw a1, 20(sp)
   10924:	01412583          	lw	a1,20(sp)
    lw a2, 24(sp)
   10928:	01812603          	lw	a2,24(sp)
    lw a3, 28(sp)
   1092c:	01c12683          	lw	a3,28(sp)
    lw a4, 32(sp)
   10930:	02012703          	lw	a4,32(sp)
    lw a5, 36(sp)
   10934:	02412783          	lw	a5,36(sp)
    lw a6, 40(sp)
   10938:	02812803          	lw	a6,40(sp)
    lw a7, 44(sp)
   1093c:	02c12883          	lw	a7,44(sp)
    lw t3, 48(sp)
   10940:	03012e03          	lw	t3,48(sp)
    lw t4, 52(sp)
   10944:	03412e83          	lw	t4,52(sp)
    lw t5, 56(sp)
   10948:	03812f03          	lw	t5,56(sp)
    lw t6, 60(sp)
   1094c:	03c12f83          	lw	t6,60(sp)

    /* 5. Trả lại 128 byte cho Stack */
    addi sp, sp, 128
   10950:	08010113          	addi	sp,sp,128

    /* 6. Lệnh MRET: Yêu cầu phần cứng quay lại dòng code C đang chạy dở trước khi bị ngắt */
   10954:	30200073          	mret
	...

00010960 <main>:
int main(void) {
   10960:	fd010113          	addi	sp,sp,-48
   10964:	02112623          	sw	ra,44(sp)
   10968:	02812423          	sw	s0,40(sp)
    syscon_init_clocks();
   1096c:	db1ff0ef          	jal	1071c <syscon_init_clocks>
    huart0.Instance = UART0; 
   10970:	80000437          	lui	s0,0x80000
    HAL_UART_Init(&huart0, UART_CLK, 115200);
   10974:	0001c637          	lui	a2,0x1c
   10978:	05f5e5b7          	lui	a1,0x5f5e
    huart0.Instance = UART0; 
   1097c:	400007b7          	lui	a5,0x40000
    HAL_UART_Init(&huart0, UART_CLK, 115200);
   10980:	00840513          	addi	a0,s0,8 # 80000008 <huart0>
   10984:	20060613          	addi	a2,a2,512 # 1c200 <_etext+0xb770>
   10988:	10058593          	addi	a1,a1,256 # 5f5e100 <_etext+0x5f4d670>
    huart0.Instance = UART0; 
   1098c:	00f42423          	sw	a5,8(s0)
    HAL_UART_Init(&huart0, UART_CLK, 115200);
   10990:	e45ff0ef          	jal	107d4 <HAL_UART_Init>
    clint_init();
   10994:	eecff0ef          	jal	10080 <clint_init>
    uint8_t test_msg[] = "HELLO RISC-V!\n";
   10998:	000117b7          	lui	a5,0x11
   1099c:	a8078793          	addi	a5,a5,-1408 # 10a80 <main+0x120>
   109a0:	0007a883          	lw	a7,0(a5)
   109a4:	0047a803          	lw	a6,4(a5)
   109a8:	0087a683          	lw	a3,8(a5)
   109ac:	00c7d703          	lhu	a4,12(a5)
   109b0:	00e7c783          	lbu	a5,14(a5)
    HAL_UART_Transmit(&huart0, test_msg, 14);
   109b4:	00e00613          	li	a2,14
   109b8:	00840513          	addi	a0,s0,8
   109bc:	01010593          	addi	a1,sp,16
    uint8_t test_msg[] = "HELLO RISC-V!\n";
   109c0:	01112823          	sw	a7,16(sp)
   109c4:	01012a23          	sw	a6,20(sp)
   109c8:	00d12c23          	sw	a3,24(sp)
   109cc:	00e11e23          	sh	a4,28(sp)
   109d0:	00f10f23          	sb	a5,30(sp)
    HAL_UART_Transmit(&huart0, test_msg, 14);
   109d4:	e41ff0ef          	jal	10814 <HAL_UART_Transmit>
    GPIO_InitStruct.Pin = GPIO_PIN_0;
   109d8:	00100413          	li	s0,1
    HAL_GPIO_Init(GPIO0, &GPIO_InitStruct);
   109dc:	00810593          	addi	a1,sp,8
   109e0:	40001537          	lui	a0,0x40001
    GPIO_InitStruct.Pin = GPIO_PIN_0;
   109e4:	00812423          	sw	s0,8(sp)
    GPIO_InitStruct.Mode = GPIO_MODE_OUTPUT;
   109e8:	00812623          	sw	s0,12(sp)
    HAL_GPIO_Init(GPIO0, &GPIO_InitStruct);
   109ec:	8c9ff0ef          	jal	102b4 <HAL_GPIO_Init>
    GPIO_InitStruct.Pin = GPIO_PIN_1;
   109f0:	00200793          	li	a5,2
    HAL_GPIO_Init(GPIO0, &GPIO_InitStruct);
   109f4:	00810593          	addi	a1,sp,8
   109f8:	40001537          	lui	a0,0x40001
    GPIO_InitStruct.Pin = GPIO_PIN_1;
   109fc:	00f12423          	sw	a5,8(sp)
    GPIO_InitStruct.Mode = GPIO_MODE_IT;
   10a00:	00f12623          	sw	a5,12(sp)
    HAL_GPIO_Init(GPIO0, &GPIO_InitStruct);
   10a04:	8b1ff0ef          	jal	102b4 <HAL_GPIO_Init>
    plic_set_threshold(0); 
   10a08:	00000513          	li	a0,0
   10a0c:	b91ff0ef          	jal	1059c <plic_set_threshold>
    plic_set_priority(IRQ_UART, 7); 
   10a10:	00040513          	mv	a0,s0
   10a14:	00700593          	li	a1,7
   10a18:	b31ff0ef          	jal	10548 <plic_set_priority>
    plic_enable_interrupt(IRQ_UART);
   10a1c:	00040513          	mv	a0,s0
   10a20:	b41ff0ef          	jal	10560 <plic_enable_interrupt>
    plic_set_priority(IRQ_GPIO, 5);  
   10a24:	00500593          	li	a1,5
   10a28:	00800513          	li	a0,8
   10a2c:	b1dff0ef          	jal	10548 <plic_set_priority>
    plic_enable_interrupt(IRQ_GPIO);
   10a30:	00800513          	li	a0,8
   10a34:	b2dff0ef          	jal	10560 <plic_enable_interrupt>
        __asm__ volatile ("li t0, 0x00006000; csrs mstatus, t0");
   10a38:	000062b7          	lui	t0,0x6
   10a3c:	3002a073          	csrs	mstatus,t0
    clint_set_timer_ms(1, RTC_CLOCK_HZ);
   10a40:	000085b7          	lui	a1,0x8
   10a44:	00040513          	mv	a0,s0
   10a48:	e7cff0ef          	jal	100c4 <clint_set_timer_ms>
    __asm__ volatile ("csrs mie, %0" :: "r"(0x880)); 
   10a4c:	000017b7          	lui	a5,0x1
   10a50:	88078793          	addi	a5,a5,-1920 # 880 <_start-0xf780>
   10a54:	3047a073          	csrs	mie,a5
    __asm__ volatile ("csrs mstatus, %0" :: "r"(0x8)); 
   10a58:	00800793          	li	a5,8
   10a5c:	3007a073          	csrs	mstatus,a5
    HAL_WDT_Init(WDT0, 400000000);
   10a60:	17d785b7          	lui	a1,0x17d78
   10a64:	40058593          	addi	a1,a1,1024 # 17d78400 <_etext+0x17d67970>
   10a68:	40005537          	lui	a0,0x40005
   10a6c:	e25ff0ef          	jal	10890 <HAL_WDT_Init>
        HAL_WDT_Refresh(WDT0);
   10a70:	40005537          	lui	a0,0x40005
   10a74:	e39ff0ef          	jal	108ac <HAL_WDT_Refresh>
        __asm__ volatile ("wfi"); 
   10a78:	10500073          	wfi
    while (1) {
   10a7c:	ff5ff06f          	j	10a70 <main+0x110>
   10a80:	4548                	.insn	2, 0x4548
   10a82:	4c4c                	.insn	2, 0x4c4c
   10a84:	4952204f          	fnmadd.s	ft0,ft4,fs5,fs1,rdn
   10a88:	562d4353          	.insn	4, 0x562d4353
   10a8c:	0a21                	.insn	2, 0x0a21
	...
